target datalayout = "e-m:e-p270:32:32-p271:32:32-p272:64:64-i64:64-i128:128-f80:128-n8:16:32:64-S128"
target triple = "x86_64-pc-linux-gnu"

%"class.icu_77::number::Notation" = type { i32, %"union.icu_77::number::Notation::NotationUnion" }
%"union.icu_77::number::Notation::NotationUnion" = type { %"struct.icu_77::number::Notation::NotationUnion::ScientificSettings" }
%"struct.icu_77::number::Notation::NotationUnion::ScientificSettings" = type { i8, i8, i16, i32 }
%"class.icu_77::MeasureUnit" = type <{ %"class.icu_77::UObject", ptr, i16, i8, [5 x i8] }>
%"class.icu_77::UObject" = type { ptr }
%"class.icu_77::number::Precision" = type <{ i32, [4 x i8], %"union.icu_77::number::Precision::PrecisionUnion", i32, [4 x i8] }>
%"union.icu_77::number::Precision::PrecisionUnion" = type { %"struct.icu_77::number::Precision::PrecisionUnion::IncrementSettings" }
%"struct.icu_77::number::Precision::PrecisionUnion::IncrementSettings" = type { i64, i16, i16 }
%"struct.icu_77::number::impl::MacroProps" = type { [4 x i8], %"class.icu_77::number::Notation", %"class.icu_77::MeasureUnit", %"class.icu_77::MeasureUnit", %"class.icu_77::number::Precision", i32, %"class.icu_77::number::impl::Grouper", %"class.icu_77::number::impl::Padder", %"class.icu_77::number::IntegerWidth", %"class.icu_77::number::impl::SymbolsWrapper", i32, i32, i8, i32, %"class.icu_77::number::Scale", %"class.icu_77::number::impl::StringProp", %"class.icu_77::number::impl::StringProp", ptr, ptr, i32, [4 x i8], %"class.icu_77::Locale" }
%"class.icu_77::number::impl::Grouper" = type { i16, i16, i16, i32 }
%"class.icu_77::number::impl::Padder" = type { i32, %union.anon }
%union.anon = type { %struct.anon.1 }
%struct.anon.1 = type { i32, i32 }
%"class.icu_77::number::IntegerWidth" = type <{ %union.anon.2, i8, [3 x i8] }>
%union.anon.2 = type { i32, [4 x i8] }
%"class.icu_77::number::impl::SymbolsWrapper" = type { i32, %union.anon.4 }
%union.anon.4 = type { ptr }
%"class.icu_77::number::Scale" = type <{ i32, [4 x i8], ptr, i32, [4 x i8] }>
%"class.icu_77::number::impl::StringProp" = type { ptr, i16, i32 }
%"class.icu_77::Locale" = type <{ %"class.icu_77::UObject", [12 x i8], [6 x i8], [4 x i8], [2 x i8], i32, [4 x i8], ptr, [157 x i8], [3 x i8], ptr, i8, [7 x i8] }>

; Function Attrs: inlinehint mustprogress nounwind uwtable
define linkonce_odr noundef zeroext i1 @_ZN6icu_776number4impl8skeleton14isWildcardCharEDs(i16 noundef zeroext %0) #2 comdat {
  %2 = alloca i16, align 2
  store i16 %0, ptr %2, align 2, !tbaa !49
  %3 = load i16, ptr %2, align 2, !tbaa !49
  %4 = zext i16 %3 to i32
  %5 = icmp eq i32 %4, 42
  br i1 %5, label %10, label %6

6:                                                ; preds = %1
  %7 = load i16, ptr %2, align 2, !tbaa !49
  %8 = zext i16 %7 to i32
  %9 = icmp eq i32 %8, 43
  br label %10

10:                                               ; preds = %6, %1
  %11 = phi i1 [ true, %1 ], [ %9, %6 ]
  ret i1 %11
}

; Function Attrs: mustprogress uwtable
define void @_ZN6icu_776number4impl17blueprint_helpers23parseIntegerWidthOptionERKNS_13StringSegmentERNS1_10MacroPropsER10UErrorCode(ptr noundef nonnull align 8 dereferenceable(17) %0, ptr noundef nonnull align 8 dereferenceable(472) %1, ptr noundef nonnull align 4 dereferenceable(4) %2) #1 {
  %4 = alloca ptr, align 8
  %5 = alloca ptr, align 8
  %6 = alloca ptr, align 8
  %7 = alloca i32, align 4
  %8 = alloca i32, align 4
  %9 = alloca i32, align 4
  %10 = alloca i32, align 4
  %11 = alloca %"class.icu_77::number::IntegerWidth", align 4
  %12 = alloca { i64, i8 }, align 8
  %13 = alloca %"class.icu_77::number::IntegerWidth", align 4
  %14 = alloca %"class.icu_77::number::IntegerWidth", align 4
  %15 = alloca { i64, i8 }, align 8
  %16 = alloca { i64, i8 }, align 8
  store ptr %0, ptr %4, align 8, !tbaa !132
  store ptr %1, ptr %5, align 8, !tbaa !75
  store ptr %2, ptr %6, align 8, !tbaa !22
  call void @llvm.lifetime.start.p0(i64 4, ptr %7) #14
  store i32 0, ptr %7, align 4, !tbaa !14
  call void @llvm.lifetime.start.p0(i64 4, ptr %8) #14
  store i32 0, ptr %8, align 4, !tbaa !14
  call void @llvm.lifetime.start.p0(i64 4, ptr %9) #14
  %17 = load ptr, ptr %4, align 8, !tbaa !132
  %18 = call noundef zeroext i16 @_ZNK6icu_7713StringSegment6charAtEi(ptr noundef nonnull align 8 dereferenceable(17) %17, i32 noundef 0)
  %19 = call noundef zeroext i1 @_ZN6icu_776number4impl8skeleton14isWildcardCharEDs(i16 noundef zeroext %18)
  br i1 %19, label %20, label %23

20:                                               ; preds = %3
  store i32 -1, ptr %9, align 4, !tbaa !14
  %21 = load i32, ptr %7, align 4, !tbaa !14
  %22 = add nsw i32 %21, 1
  store i32 %22, ptr %7, align 4, !tbaa !14
  br label %24

23:                                               ; preds = %3
  store i32 0, ptr %9, align 4, !tbaa !14
  br label %24

24:                                               ; preds = %23, %20
  br label %25

25:                                               ; preds = %44, %24
  %26 = load i32, ptr %7, align 4, !tbaa !14
  %27 = load ptr, ptr %4, align 8, !tbaa !132
  %28 = call noundef i32 @_ZNK6icu_7713StringSegment6lengthEv(ptr noundef nonnull align 8 dereferenceable(17) %27)
  %29 = icmp slt i32 %26, %28
  br i1 %29, label %30, label %47

30:                                               ; preds = %25
  %31 = load i32, ptr %9, align 4, !tbaa !14
  %32 = icmp ne i32 %31, -1
  br i1 %32, label %33, label %42

33:                                               ; preds = %30
  %34 = load ptr, ptr %4, align 8, !tbaa !132
  %35 = load i32, ptr %7, align 4, !tbaa !14
  %36 = call noundef zeroext i16 @_ZNK6icu_7713StringSegment6charAtEi(ptr noundef nonnull align 8 dereferenceable(17) %34, i32 noundef %35)
  %37 = zext i16 %36 to i32
  %38 = icmp eq i32 %37, 35
  br i1 %38, label %39, label %42

39:                                               ; preds = %33
  %40 = load i32, ptr %9, align 4, !tbaa !14
  %41 = add nsw i32 %40, 1
  store i32 %41, ptr %9, align 4, !tbaa !14
  br label %43

42:                                               ; preds = %33, %30
  br label %47

43:                                               ; preds = %39
  br label %44

44:                                               ; preds = %43
  %45 = load i32, ptr %7, align 4, !tbaa !14
  %46 = add nsw i32 %45, 1
  store i32 %46, ptr %7, align 4, !tbaa !14
  br label %25, !llvm.loop !146

47:                                               ; preds = %42, %25
  %48 = load i32, ptr %7, align 4, !tbaa !14
  %49 = load ptr, ptr %4, align 8, !tbaa !132
  %50 = call noundef i32 @_ZNK6icu_7713StringSegment6lengthEv(ptr noundef nonnull align 8 dereferenceable(17) %49)
  %51 = icmp slt i32 %48, %50
  br i1 %51, label %52, label %73

52:                                               ; preds = %47
  br label %53

53:                                               ; preds = %69, %52
  %54 = load i32, ptr %7, align 4, !tbaa !14
  %55 = load ptr, ptr %4, align 8, !tbaa !132
  %56 = call noundef i32 @_ZNK6icu_7713StringSegment6lengthEv(ptr noundef nonnull align 8 dereferenceable(17) %55)
  %57 = icmp slt i32 %54, %56
  br i1 %57, label %58, label %72

58:                                               ; preds = %53
  %59 = load ptr, ptr %4, align 8, !tbaa !132
  %60 = load i32, ptr %7, align 4, !tbaa !14
  %61 = call noundef zeroext i16 @_ZNK6icu_7713StringSegment6charAtEi(ptr noundef nonnull align 8 dereferenceable(17) %59, i32 noundef %60)
  %62 = zext i16 %61 to i32
  %63 = icmp eq i32 %62, 48
  br i1 %63, label %64, label %67

64:                                               ; preds = %58
  %65 = load i32, ptr %8, align 4, !tbaa !14
  %66 = add nsw i32 %65, 1
  store i32 %66, ptr %8, align 4, !tbaa !14
  br label %68

67:                                               ; preds = %58
  br label %72

68:                                               ; preds = %64
  br label %69

69:                                               ; preds = %68
  %70 = load i32, ptr %7, align 4, !tbaa !14
  %71 = add nsw i32 %70, 1
  store i32 %71, ptr %7, align 4, !tbaa !14
  br label %53, !llvm.loop !147

72:                                               ; preds = %67, %53
  br label %73

73:                                               ; preds = %72, %47
  %74 = load i32, ptr %9, align 4, !tbaa !14
  %75 = icmp ne i32 %74, -1
  br i1 %75, label %76, label %80

76:                                               ; preds = %73
  %77 = load i32, ptr %8, align 4, !tbaa !14
  %78 = load i32, ptr %9, align 4, !tbaa !14
  %79 = add nsw i32 %78, %77
  store i32 %79, ptr %9, align 4, !tbaa !14
  br label %80

80:                                               ; preds = %76, %73
  %81 = load i32, ptr %7, align 4, !tbaa !14
  %82 = load ptr, ptr %4, align 8, !tbaa !132
  %83 = call noundef i32 @_ZNK6icu_7713StringSegment6lengthEv(ptr noundef nonnull align 8 dereferenceable(17) %82)
  %84 = icmp slt i32 %81, %83
  br i1 %84, label %85, label %87

85:                                               ; preds = %80
  %86 = load ptr, ptr %6, align 8, !tbaa !22
  store i32 65811, ptr %86, align 4, !tbaa !15
  store i32 1, ptr %10, align 4
  br label %103

87:                                               ; preds = %80
  %88 = load i32, ptr %9, align 4, !tbaa !14
  %89 = icmp eq i32 %88, -1
  br i1 %89, label %90, label %95

90:                                               ; preds = %87
  call void @llvm.lifetime.start.p0(i64 12, ptr %11) #14
  %91 = load i32, ptr %8, align 4, !tbaa !14
  %92 = call { i64, i8 } @_ZN6icu_776number12IntegerWidth10zeroFillToEi(i32 noundef %91)
  store { i64, i8 } %92, ptr %12, align 8
  call void @llvm.memcpy.p0.p0.i64(ptr align 4 %11, ptr align 8 %12, i64 9, i1 false)
  %93 = load ptr, ptr %5, align 8, !tbaa !75
  %94 = getelementptr inbounds nuw %"struct.icu_77::number::impl::MacroProps", ptr %93, i32 0, i32 8
  call void @llvm.memcpy.p0.p0.i64(ptr align 4 %94, ptr align 4 %11, i64 9, i1 false)
  call void @llvm.lifetime.end.p0(i64 12, ptr %11) #14
  br label %102

95:                                               ; preds = %87
  call void @llvm.lifetime.start.p0(i64 12, ptr %13) #14
  call void @llvm.lifetime.start.p0(i64 12, ptr %14) #14
  %96 = load i32, ptr %8, align 4, !tbaa !14
  %97 = call { i64, i8 } @_ZN6icu_776number12IntegerWidth10zeroFillToEi(i32 noundef %96)
  store { i64, i8 } %97, ptr %15, align 8
  call void @llvm.memcpy.p0.p0.i64(ptr align 4 %14, ptr align 8 %15, i64 9, i1 false)
  %98 = load i32, ptr %9, align 4, !tbaa !14
  %99 = call { i64, i8 } @_ZN6icu_776number12IntegerWidth10truncateAtEi(ptr noundef nonnull align 4 dereferenceable(9) %14, i32 noundef %98)
  store { i64, i8 } %99, ptr %16, align 8
  call void @llvm.memcpy.p0.p0.i64(ptr align 4 %13, ptr align 8 %16, i64 9, i1 false)
  %100 = load ptr, ptr %5, align 8, !tbaa !75
  %101 = getelementptr inbounds nuw %"struct.icu_77::number::impl::MacroProps", ptr %100, i32 0, i32 8
  call void @llvm.memcpy.p0.p0.i64(ptr align 4 %101, ptr align 4 %13, i64 9, i1 false)
  call void @llvm.lifetime.end.p0(i64 12, ptr %14) #14
  call void @llvm.lifetime.end.p0(i64 12, ptr %13) #14
  br label %102

102:                                              ; preds = %95, %90
  store i32 0, ptr %10, align 4
  br label %103

103:                                              ; preds = %102, %85
  call void @llvm.lifetime.end.p0(i64 4, ptr %9) #14
  call void @llvm.lifetime.end.p0(i64 4, ptr %8) #14
  call void @llvm.lifetime.end.p0(i64 4, ptr %7) #14
  %104 = load i32, ptr %10, align 4
  switch i32 %104, label %106 [
    i32 0, label %105
    i32 1, label %105
  ]

105:                                              ; preds = %103, %103
  ret void

106:                                              ; preds = %103
  unreachable
}