; Function Attrs: mustprogress uwtable
define void @_ZN6icu_776number4impl17blueprint_helpers23parseIntegerWidthOptionERKNS_13StringSegmentERNS1_10MacroPropsER10UErrorCode(ptr noundef nonnull align 8 dereferenceable(17) %0, ptr noundef nonnull writeonly align 8 captures(none) dereferenceable(472) %1, ptr noundef nonnull writeonly align 4 captures(none) dereferenceable(4) %2) local_unnamed_addr #1 {
  %4 = alloca %"class.icu_77::number::IntegerWidth", align 8
  %5 = tail call noundef zeroext i16 @_ZNK6icu_7713StringSegment6charAtEi(ptr noundef nonnull align 8 dereferenceable(17) %0, i32 noundef 0)
  %6 = and i16 %5, -2
  %7 = icmp eq i16 %6, 42
  %. = sext i1 %7 to i32
  %.46 = zext i1 %7 to i32
  %8 = tail call noundef i32 @_ZNK6icu_7713StringSegment6lengthEv(ptr noundef nonnull align 8 dereferenceable(17) %0)
  %9 = icmp sle i32 %8, %.46
  %10 = xor i1 %7, true
  %or.cond47.not = or i1 %9, %7
  br i1 %or.cond47.not, label %._crit_edge, label %.lr.ph.preheader

.lr.ph.preheader:                                 ; preds = %3
  %11 = tail call noundef zeroext i16 @_ZNK6icu_7713StringSegment6charAtEi(ptr noundef nonnull align 8 dereferenceable(17) %0, i32 noundef %.46)
  %12 = icmp eq i16 %11, 35
  br i1 %12, label %.lr.ph66, label %._crit_edge

.lr.ph:                                           ; preds = %.lr.ph66
  %13 = tail call noundef zeroext i16 @_ZNK6icu_7713StringSegment6charAtEi(ptr noundef nonnull align 8 dereferenceable(17) %0, i32 noundef %16)
  %14 = icmp eq i16 %13, 35
  br i1 %14, label %.lr.ph66, label %._crit_edge, !llvm.loop !116

.lr.ph66:                                         ; preds = %.lr.ph.preheader, %.lr.ph
  %.1444865 = phi i32 [ %15, %.lr.ph ], [ %., %.lr.ph.preheader ]
  %.14964 = phi i32 [ %16, %.lr.ph ], [ %.46, %.lr.ph.preheader ]
  %15 = add nuw nsw i32 %.1444865, 1
  %16 = add nuw nsw i32 %.14964, 1
  %17 = tail call noundef i32 @_ZNK6icu_7713StringSegment6lengthEv(ptr noundef nonnull align 8 dereferenceable(17) %0)
  %18 = icmp slt i32 %16, %17
  br i1 %18, label %.lr.ph, label %._crit_edge, !llvm.loop !116

._crit_edge:                                      ; preds = %.lr.ph, %.lr.ph66, %.lr.ph.preheader, %3
  %.144.lcssa = phi i32 [ %., %3 ], [ %., %.lr.ph.preheader ], [ %15, %.lr.ph66 ], [ %15, %.lr.ph ]
  %.1.lcssa = phi i32 [ %.46, %3 ], [ %.46, %.lr.ph.preheader ], [ %16, %.lr.ph66 ], [ %16, %.lr.ph ]
  %.lcssa = phi i1 [ %10, %3 ], [ %10, %.lr.ph.preheader ], [ true, %.lr.ph66 ], [ true, %.lr.ph ]
  %19 = tail call noundef i32 @_ZNK6icu_7713StringSegment6lengthEv(ptr noundef nonnull align 8 dereferenceable(17) %0)
  %20 = icmp slt i32 %.1.lcssa, %19
  br i1 %20, label %.preheader, label %.loopexit

.preheader:                                       ; preds = %._crit_edge
  %21 = tail call noundef i32 @_ZNK6icu_7713StringSegment6lengthEv(ptr noundef nonnull align 8 dereferenceable(17) %0)
  %22 = icmp slt i32 %.1.lcssa, %21
  br i1 %22, label %.lr.ph58, label %.loopexit

.lr.ph58:                                         ; preds = %.preheader, %25
  %.357 = phi i32 [ %27, %25 ], [ %.1.lcssa, %.preheader ]
  %.14256 = phi i32 [ %26, %25 ], [ 0, %.preheader ]
  %23 = tail call noundef zeroext i16 @_ZNK6icu_7713StringSegment6charAtEi(ptr noundef nonnull align 8 dereferenceable(17) %0, i32 noundef %.357)
  %24 = icmp eq i16 %23, 48
  br i1 %24, label %25, label %.loopexit

25:                                               ; preds = %.lr.ph58
  %26 = add nuw nsw i32 %.14256, 1
  %27 = add nuw nsw i32 %.357, 1
  %28 = tail call noundef i32 @_ZNK6icu_7713StringSegment6lengthEv(ptr noundef nonnull align 8 dereferenceable(17) %0)
  %29 = icmp slt i32 %27, %28
  br i1 %29, label %.lr.ph58, label %.loopexit, !llvm.loop !117

.loopexit:                                        ; preds = %.lr.ph58, %25, %.preheader, %._crit_edge
  %.041 = phi i32 [ 0, %._crit_edge ], [ 0, %.preheader ], [ %.14256, %.lr.ph58 ], [ %26, %25 ]
  %.2 = phi i32 [ %.1.lcssa, %._crit_edge ], [ %.1.lcssa, %.preheader ], [ %.357, %.lr.ph58 ], [ %27, %25 ]
  %30 = add nsw i32 %.041, %.144.lcssa
  %spec.select = select i1 %.lcssa, i32 %30, i32 -1
  %31 = tail call noundef i32 @_ZNK6icu_7713StringSegment6lengthEv(ptr noundef nonnull align 8 dereferenceable(17) %0)
  %32 = icmp slt i32 %.2, %31
  br i1 %32, label %33, label %34

33:                                               ; preds = %.loopexit
  store i32 65811, ptr %2, align 4, !tbaa !13
  br label %43

34:                                               ; preds = %.loopexit
  %35 = icmp eq i32 %spec.select, -1
  br i1 %35, label %36, label %39

36:                                               ; preds = %34
  %37 = tail call { i64, i8 } @_ZN6icu_776number12IntegerWidth10zeroFillToEi(i32 noundef %.041)
  %.fca.0.extract7 = extractvalue { i64, i8 } %37, 0
  %.fca.1.extract8 = extractvalue { i64, i8 } %37, 1
  %38 = getelementptr inbounds nuw i8, ptr %1, i64 124
  store i64 %.fca.0.extract7, ptr %38, align 4
  %.sroa.412.0..sroa_idx = getelementptr inbounds nuw i8, ptr %1, i64 132
  store i8 %.fca.1.extract8, ptr %.sroa.412.0..sroa_idx, align 4
  br label %43

39:                                               ; preds = %34
  call void @llvm.lifetime.start.p0(i64 12, ptr nonnull %4) #18
  %40 = tail call { i64, i8 } @_ZN6icu_776number12IntegerWidth10zeroFillToEi(i32 noundef %.041)
  %.fca.0.extract2 = extractvalue { i64, i8 } %40, 0
  %.fca.1.extract3 = extractvalue { i64, i8 } %40, 1
  store i64 %.fca.0.extract2, ptr %4, align 8
  %.sroa.25.0..sroa_idx = getelementptr inbounds nuw i8, ptr %4, i64 8
  store i8 %.fca.1.extract3, ptr %.sroa.25.0..sroa_idx, align 8
  %41 = call { i64, i8 } @_ZN6icu_776number12IntegerWidth10truncateAtEi(ptr noundef nonnull align 4 dereferenceable(9) %4, i32 noundef %spec.select)
  %.fca.0.extract = extractvalue { i64, i8 } %41, 0
  %.fca.1.extract = extractvalue { i64, i8 } %41, 1
  %42 = getelementptr inbounds nuw i8, ptr %1, i64 124
  store i64 %.fca.0.extract, ptr %42, align 4
  %.sroa.4.0..sroa_idx = getelementptr inbounds nuw i8, ptr %1, i64 132
  store i8 %.fca.1.extract, ptr %.sroa.4.0..sroa_idx, align 4
  call void @llvm.lifetime.end.p0(i64 12, ptr nonnull %4) #18
  br label %43

43:                                               ; preds = %36, %39, %33
  ret void
}